; Function Attrs: nounwind uwtable
define void @gui_update(ptr noundef %0) local_unnamed_addr #1 {
  %2 = getelementptr inbounds nuw i8, ptr %0, i64 704
  %3 = load ptr, ptr %2, align 16, !tbaa !137
  %4 = getelementptr inbounds nuw i8, ptr %0, i64 680
  %5 = load ptr, ptr %4, align 8, !tbaa !138
  %6 = tail call ptr @dt_conf_get_string(ptr noundef nonnull @.str.80) #25
  %7 = load i8, ptr %6, align 1, !tbaa !73
  %.not = icmp eq i8 %7, 0
  %8 = load ptr, ptr %3, align 8, !tbaa !139
  %9 = getelementptr inbounds nuw i8, ptr %3, i64 8
  br i1 %.not, label %10, label %13

10:                                               ; preds = %1
  tail call void @gtk_widget_set_sensitive(ptr noundef %8, i32 noundef 0) #25
  %11 = load ptr, ptr %9, align 8, !tbaa !140
  tail call void @gtk_widget_set_sensitive(ptr noundef %11, i32 noundef 0) #25
  %12 = load ptr, ptr %9, align 8, !tbaa !140
  tail call void @dt_bauhaus_combobox_clear(ptr noundef %12) #25
  br label %17

13:                                               ; preds = %1
  tail call void @gtk_widget_set_sensitive(ptr noundef %8, i32 noundef 1) #25
  %14 = load ptr, ptr %9, align 8, !tbaa !140
  %15 = load i8, ptr %5, align 4, !tbaa !73
  %16 = sext i8 %15 to i32
  tail call void @gtk_widget_set_sensitive(ptr noundef %14, i32 noundef %16) #25
  tail call fastcc void @update_filepath_combobox(ptr noundef nonnull %3, ptr noundef nonnull %5, ptr noundef nonnull %6)
  br label %17

17:                                               ; preds = %13, %10
  tail call void @g_free(ptr noundef nonnull %6) #25
  %18 = load ptr, ptr %2, align 16, !tbaa !137
  %19 = getelementptr inbounds nuw i8, ptr %0, i64 664
  %20 = load ptr, ptr %19, align 8, !tbaa !97
  %21 = getelementptr inbounds nuw i8, ptr %20, i64 2080
  %22 = load ptr, ptr %21, align 16, !tbaa !141
  %23 = getelementptr inbounds nuw i8, ptr %0, i64 456
  %24 = getelementptr inbounds nuw i8, ptr %0, i64 952
  %25 = load i32, ptr %24, align 8, !tbaa !142
  %26 = tail call i32 @dt_ioppr_get_iop_order(ptr noundef %22, ptr noundef nonnull %23, i32 noundef %25) #25
  %27 = tail call i32 @dt_ioppr_get_iop_order(ptr noundef %22, ptr noundef nonnull @.str.127, i32 noundef -1) #25
  %28 = tail call i32 @dt_ioppr_get_iop_order(ptr noundef %22, ptr noundef nonnull @.str.128, i32 noundef -1) #25
  %29 = icmp slt i32 %26, %27
  %30 = icmp sgt i32 %26, %28
  %or.cond.i = select i1 %29, i1 true, i1 %30
  %31 = getelementptr inbounds nuw i8, ptr %18, i64 16
  %32 = load ptr, ptr %31, align 8, !tbaa !143
  br i1 %or.cond.i, label %33, label %34

33:                                               ; preds = %17
  tail call void @gtk_widget_hide(ptr noundef %32) #25
  br label %_show_hide_colorspace.exit

34:                                               ; preds = %17
  tail call void @gtk_widget_show(ptr noundef %32) #25
  br label %_show_hide_colorspace.exit

_show_hide_colorspace.exit:                       ; preds = %33, %34
  %35 = getelementptr inbounds nuw i8, ptr %5, i64 12812
  %36 = load i8, ptr %35, align 4, !tbaa !73
  %.not17 = icmp eq i8 %36, 0
  br i1 %.not17, label %38, label %37

37:                                               ; preds = %_show_hide_colorspace.exit
  %.val = load ptr, ptr %4, align 8, !tbaa !138
  %.val18 = load ptr, ptr %2, align 16, !tbaa !137
  tail call fastcc void @get_compressed_clut(ptr %.val, ptr %.val18, i32 noundef 0)
  br label %38

38:                                               ; preds = %37, %_show_hide_colorspace.exit
  %.val19 = load ptr, ptr %2, align 16, !tbaa !137
  tail call fastcc void @show_hide_controls(ptr %.val19)
  ret void
}